; Function Attrs: mustprogress uwtable
define hidden noundef nonnull ptr @ncnn_mat_from_pixels_resize(ptr noundef %0, i32 noundef %1, i32 noundef %2, i32 noundef %3, i32 noundef %4, i32 noundef %5, i32 noundef %6, ptr noundef readonly %7) local_unnamed_addr #1 personality ptr @__gxx_personality_v0 {
  %9 = tail call noalias noundef nonnull dereferenceable(72) ptr @_Znwm(i64 noundef 72) #24
  %.not = icmp eq ptr %7, null
  br i1 %.not, label %12, label %10

10:                                               ; preds = %8
  %11 = load ptr, ptr %7, align 8
  br label %12

12:                                               ; preds = %8, %10
  %13 = phi ptr [ %11, %10 ], [ null, %8 ]
  invoke void @_ZN4ncnn3Mat18from_pixels_resizeEPKhiiiiiiPNS_9AllocatorE(ptr dead_on_unwind nonnull writable sret(%"class.ncnn::Mat") align 8 %9, ptr noundef %0, i32 noundef %1, i32 noundef %2, i32 noundef %3, i32 noundef %4, i32 noundef %5, i32 noundef %6, ptr noundef %13)
          to label %14 unwind label %15

14:                                               ; preds = %12
  ret ptr %9

15:                                               ; preds = %12
  %16 = landingpad { ptr, i32 }
          cleanup
  tail call void @_ZdlPvm(ptr noundef nonnull %9, i64 noundef 72) #25
  resume { ptr, i32 } %16
}